target datalayout = "e-m:e-p270:32:32-p271:32:32-p272:64:64-i64:64-i128:128-f80:128-n8:16:32:64-S128"
target triple = "x86_64-pc-linux-gnu"

%"class.net::QuicTime::Delta" = type { %"class.base::TimeDelta", i64 }
%"class.base::TimeDelta" = type { i64 }
%"class.net::PacingSender" = type <{ ptr, %"class.net::QuicBandwidth", i32, [4 x i8], %"class.net::QuicTime", %"class.net::QuicTime", i8, [7 x i8] }>
%"class.net::QuicBandwidth" = type { i64 }
%"class.net::QuicTime" = type { i64 }

@_ZN3net12_GLOBAL__N_117kAlarmGranularityE = internal global %"class.net::QuicTime::Delta" zeroinitializer, align 8

; Function Attrs: mustprogress nounwind uwtable
define linkonce_odr void @_ZN4base9TimeDeltaC2Ev(ptr noundef nonnull align 8 dereferenceable(8) %0) unnamed_addr #5 comdat align 2 {
  %2 = alloca ptr, align 8
  store ptr %0, ptr %2, align 8, !tbaa !44
  %3 = load ptr, ptr %2, align 8
  %4 = getelementptr inbounds nuw %"class.base::TimeDelta", ptr %3, i32 0, i32 0
  store i64 0, ptr %4, align 8, !tbaa !46
  ret void
}

; Function Attrs: inlinehint mustprogress uwtable
define linkonce_odr void @_ZN3net8QuicTime5DeltaC2El(ptr noundef nonnull align 8 dereferenceable(16) %0, i64 noundef %1) unnamed_addr #1 comdat align 2 {
  %3 = alloca ptr, align 8
  %4 = alloca i64, align 8
  store ptr %0, ptr %3, align 8, !tbaa !40
  store i64 %1, ptr %4, align 8, !tbaa !3
  %5 = load ptr, ptr %3, align 8
  %6 = getelementptr inbounds nuw %"class.net::QuicTime::Delta", ptr %5, i32 0, i32 0
  call void @_ZN4base9TimeDeltaC2Ev(ptr noundef nonnull align 8 dereferenceable(8) %6)
  %7 = getelementptr inbounds nuw %"class.net::QuicTime::Delta", ptr %5, i32 0, i32 1
  %8 = load i64, ptr %4, align 8, !tbaa !3
  store i64 %8, ptr %7, align 8, !tbaa !35
  ret void
}

; Function Attrs: inlinehint mustprogress nounwind uwtable
define linkonce_odr noundef zeroext i1 @_ZN3netltENS_8QuicTimeES0_(i64 %0, i64 %1) #7 comdat {
  %3 = alloca %"class.net::QuicTime", align 8
  %4 = alloca %"class.net::QuicTime", align 8
  %5 = getelementptr inbounds nuw %"class.net::QuicTime", ptr %3, i32 0, i32 0
  store i64 %0, ptr %5, align 8
  %6 = getelementptr inbounds nuw %"class.net::QuicTime", ptr %4, i32 0, i32 0
  store i64 %1, ptr %6, align 8
  %7 = getelementptr inbounds nuw %"class.net::QuicTime", ptr %3, i32 0, i32 0
  %8 = load i64, ptr %7, align 8, !tbaa !34
  %9 = getelementptr inbounds nuw %"class.net::QuicTime", ptr %4, i32 0, i32 0
  %10 = load i64, ptr %9, align 8, !tbaa !34
  %11 = icmp slt i64 %8, %10
  ret i1 %11
}

; Function Attrs: inlinehint mustprogress nounwind uwtable
define linkonce_odr void @_ZN3net8QuicTimeC2El(ptr noundef nonnull align 8 dereferenceable(8) %0, i64 noundef %1) unnamed_addr #7 comdat align 2 {
  %3 = alloca ptr, align 8
  %4 = alloca i64, align 8
  store ptr %0, ptr %3, align 8, !tbaa !38
  store i64 %1, ptr %4, align 8, !tbaa !3
  %5 = load ptr, ptr %3, align 8
  %6 = getelementptr inbounds nuw %"class.net::QuicTime", ptr %5, i32 0, i32 0
  %7 = load i64, ptr %4, align 8, !tbaa !3
  store i64 %7, ptr %6, align 8, !tbaa !34
  ret void
}

; Function Attrs: inlinehint mustprogress uwtable
define linkonce_odr { i64, i64 } @_ZN3net8QuicTime5Delta4ZeroEv() #1 comdat align 2 {
  %1 = alloca %"class.net::QuicTime::Delta", align 8
  call void @_ZN3net8QuicTime5DeltaC2El(ptr noundef nonnull align 8 dereferenceable(16) %1, i64 noundef 0)
  %2 = load { i64, i64 }, ptr %1, align 8
  ret { i64, i64 } %2
}

; Function Attrs: inlinehint mustprogress uwtable
define linkonce_odr { i64, i64 } @_ZN3netmiENS_8QuicTimeES0_(i64 %0, i64 %1) #1 comdat {
  %3 = alloca %"class.net::QuicTime::Delta", align 8
  %4 = alloca %"class.net::QuicTime", align 8
  %5 = alloca %"class.net::QuicTime", align 8
  %6 = getelementptr inbounds nuw %"class.net::QuicTime", ptr %4, i32 0, i32 0
  store i64 %0, ptr %6, align 8
  %7 = getelementptr inbounds nuw %"class.net::QuicTime", ptr %5, i32 0, i32 0
  store i64 %1, ptr %7, align 8
  %8 = getelementptr inbounds nuw %"class.net::QuicTime", ptr %4, i32 0, i32 0
  %9 = load i64, ptr %8, align 8, !tbaa !34
  %10 = getelementptr inbounds nuw %"class.net::QuicTime", ptr %5, i32 0, i32 0
  %11 = load i64, ptr %10, align 8, !tbaa !34
  %12 = sub nsw i64 %9, %11
  call void @_ZN3net8QuicTime5DeltaC2El(ptr noundef nonnull align 8 dereferenceable(16) %3, i64 noundef %12)
  %13 = load { i64, i64 }, ptr %3, align 8
  ret { i64, i64 } %13
}

; Function Attrs: inlinehint mustprogress uwtable
define linkonce_odr noundef zeroext i1 @_ZN3netgtENS_8QuicTimeES0_(i64 %0, i64 %1) #1 comdat {
  %3 = alloca %"class.net::QuicTime", align 8
  %4 = alloca %"class.net::QuicTime", align 8
  %5 = alloca %"class.net::QuicTime", align 8
  %6 = alloca %"class.net::QuicTime", align 8
  %7 = getelementptr inbounds nuw %"class.net::QuicTime", ptr %3, i32 0, i32 0
  store i64 %0, ptr %7, align 8
  %8 = getelementptr inbounds nuw %"class.net::QuicTime", ptr %4, i32 0, i32 0
  store i64 %1, ptr %8, align 8
  call void @llvm.memcpy.p0.p0.i64(ptr align 8 %5, ptr align 8 %4, i64 8, i1 false), !tbaa.struct !29
  call void @llvm.memcpy.p0.p0.i64(ptr align 8 %6, ptr align 8 %3, i64 8, i1 false), !tbaa.struct !29
  %9 = getelementptr inbounds nuw %"class.net::QuicTime", ptr %5, i32 0, i32 0
  %10 = load i64, ptr %9, align 8
  %11 = getelementptr inbounds nuw %"class.net::QuicTime", ptr %6, i32 0, i32 0
  %12 = load i64, ptr %11, align 8
  %13 = call noundef zeroext i1 @_ZN3netltENS_8QuicTimeES0_(i64 %10, i64 %12)
  ret i1 %13
}

; Function Attrs: inlinehint mustprogress uwtable
define linkonce_odr i64 @_ZN3netplENS_8QuicTimeENS0_5DeltaE(i64 %0, i64 %1, i64 %2) #1 comdat {
  %4 = alloca %"class.net::QuicTime", align 8
  %5 = alloca %"class.net::QuicTime", align 8
  %6 = alloca %"class.net::QuicTime::Delta", align 8
  %7 = getelementptr inbounds nuw %"class.net::QuicTime", ptr %5, i32 0, i32 0
  store i64 %0, ptr %7, align 8
  %8 = getelementptr inbounds nuw { i64, i64 }, ptr %6, i32 0, i32 0
  store i64 %1, ptr %8, align 8
  %9 = getelementptr inbounds nuw { i64, i64 }, ptr %6, i32 0, i32 1
  store i64 %2, ptr %9, align 8
  %10 = getelementptr inbounds nuw %"class.net::QuicTime", ptr %5, i32 0, i32 0
  %11 = load i64, ptr %10, align 8, !tbaa !34
  %12 = getelementptr inbounds nuw %"class.net::QuicTime::Delta", ptr %6, i32 0, i32 1
  %13 = load i64, ptr %12, align 8, !tbaa !35
  %14 = add nsw i64 %11, %13
  call void @_ZN3net8QuicTimeC2El(ptr noundef nonnull align 8 dereferenceable(8) %4, i64 noundef %14)
  %15 = getelementptr inbounds nuw %"class.net::QuicTime", ptr %4, i32 0, i32 0
  %16 = load i64, ptr %15, align 8
  ret i64 %16
}

; Function Attrs: inlinehint mustprogress nounwind uwtable
define linkonce_odr noundef zeroext i1 @_ZNK3net8QuicTime5Delta6IsZeroEv(ptr noundef nonnull align 8 dereferenceable(16) %0) #7 comdat align 2 {
  %2 = alloca ptr, align 8
  store ptr %0, ptr %2, align 8, !tbaa !40
  %3 = load ptr, ptr %2, align 8
  %4 = getelementptr inbounds nuw %"class.net::QuicTime::Delta", ptr %3, i32 0, i32 1
  %5 = load i64, ptr %4, align 8, !tbaa !35
  %6 = icmp eq i64 %5, 0
  ret i1 %6
}

; Function Attrs: mustprogress uwtable
define { i64, i64 } @_ZNK3net12PacingSender13TimeUntilSendENS_8QuicTimeEm(ptr noundef nonnull align 8 dereferenceable(41) %0, i64 %1, i64 noundef %2) #3 align 2 {
  %4 = alloca %"class.net::QuicTime::Delta", align 8
  %5 = alloca %"class.net::QuicTime", align 8
  %6 = alloca ptr, align 8
  %7 = alloca i64, align 8
  %8 = alloca %"class.net::QuicTime::Delta", align 8
  %9 = alloca %"class.net::QuicTime", align 8
  %10 = alloca i32, align 4
  %11 = alloca %"class.net::QuicTime", align 8
  %12 = alloca %"class.net::QuicTime", align 8
  %13 = alloca %"class.net::QuicTime", align 8
  %14 = alloca %"class.net::QuicTime::Delta", align 8
  %15 = alloca %"class.net::QuicTime", align 8
  %16 = alloca %"class.net::QuicTime", align 8
  %17 = getelementptr inbounds nuw %"class.net::QuicTime", ptr %5, i32 0, i32 0
  store i64 %1, ptr %17, align 8
  store ptr %0, ptr %6, align 8, !tbaa !7
  store i64 %2, ptr %7, align 8, !tbaa !3
  %18 = load ptr, ptr %6, align 8
  call void @llvm.lifetime.start.p0(i64 16, ptr %8) #8
  %19 = getelementptr inbounds nuw %"class.net::PacingSender", ptr %18, i32 0, i32 0
  %20 = load ptr, ptr %19, align 8, !tbaa !10
  call void @llvm.memcpy.p0.p0.i64(ptr align 8 %9, ptr align 8 %5, i64 8, i1 false), !tbaa.struct !29
  %21 = load i64, ptr %7, align 8, !tbaa !3
  %22 = getelementptr inbounds nuw %"class.net::QuicTime", ptr %9, i32 0, i32 0
  %23 = load i64, ptr %22, align 8
  %24 = load ptr, ptr %20, align 8, !tbaa !25
  %25 = getelementptr inbounds ptr, ptr %24, i64 8
  %26 = load ptr, ptr %25, align 8
  %27 = call { i64, i64 } %26(ptr noundef nonnull align 8 dereferenceable(8) %20, i64 %23, i64 noundef %21)
  %28 = getelementptr inbounds nuw { i64, i64 }, ptr %8, i32 0, i32 0
  %29 = extractvalue { i64, i64 } %27, 0
  store i64 %29, ptr %28, align 8
  %30 = getelementptr inbounds nuw { i64, i64 }, ptr %8, i32 0, i32 1
  %31 = extractvalue { i64, i64 } %27, 1
  store i64 %31, ptr %30, align 8
  %32 = getelementptr inbounds nuw %"class.net::PacingSender", ptr %18, i32 0, i32 2
  %33 = load i32, ptr %32, align 8, !tbaa !17
  %34 = icmp ugt i32 %33, 0
  br i1 %34, label %38, label %35

35:                                               ; preds = %3
  %36 = load i64, ptr %7, align 8, !tbaa !3
  %37 = icmp eq i64 %36, 0
  br i1 %37, label %38, label %39

38:                                               ; preds = %35, %3
  call void @llvm.memcpy.p0.p0.i64(ptr align 8 %4, ptr align 8 %8, i64 16, i1 false), !tbaa.struct !31
  store i32 1, ptr %10, align 4
  br label %75

39:                                               ; preds = %35
  %40 = call noundef zeroext i1 @_ZNK3net8QuicTime5Delta6IsZeroEv(ptr noundef nonnull align 8 dereferenceable(16) %8)
  br i1 %40, label %42, label %41

41:                                               ; preds = %39
  call void @llvm.memcpy.p0.p0.i64(ptr align 8 %4, ptr align 8 %8, i64 16, i1 false), !tbaa.struct !31
  store i32 1, ptr %10, align 4
  br label %75

42:                                               ; preds = %39
  %43 = getelementptr inbounds nuw %"class.net::PacingSender", ptr %18, i32 0, i32 5
  call void @llvm.memcpy.p0.p0.i64(ptr align 8 %11, ptr align 8 %43, i64 8, i1 false), !tbaa.struct !29
  call void @llvm.memcpy.p0.p0.i64(ptr align 8 %13, ptr align 8 %5, i64 8, i1 false), !tbaa.struct !29
  call void @llvm.memcpy.p0.p0.i64(ptr align 8 %14, ptr align 8 @_ZN3net12_GLOBAL__N_117kAlarmGranularityE, i64 16, i1 false), !tbaa.struct !31
  %44 = getelementptr inbounds nuw %"class.net::QuicTime", ptr %13, i32 0, i32 0
  %45 = load i64, ptr %44, align 8
  %46 = getelementptr inbounds nuw { i64, i64 }, ptr %14, i32 0, i32 0
  %47 = load i64, ptr %46, align 8
  %48 = getelementptr inbounds nuw { i64, i64 }, ptr %14, i32 0, i32 1
  %49 = load i64, ptr %48, align 8
  %50 = call i64 @_ZN3netplENS_8QuicTimeENS0_5DeltaE(i64 %45, i64 %47, i64 %49)
  %51 = getelementptr inbounds nuw %"class.net::QuicTime", ptr %12, i32 0, i32 0
  store i64 %50, ptr %51, align 8
  %52 = getelementptr inbounds nuw %"class.net::QuicTime", ptr %11, i32 0, i32 0
  %53 = load i64, ptr %52, align 8
  %54 = getelementptr inbounds nuw %"class.net::QuicTime", ptr %12, i32 0, i32 0
  %55 = load i64, ptr %54, align 8
  %56 = call noundef zeroext i1 @_ZN3netgtENS_8QuicTimeES0_(i64 %53, i64 %55)
  br i1 %56, label %57, label %69

57:                                               ; preds = %42
  %58 = getelementptr inbounds nuw %"class.net::PacingSender", ptr %18, i32 0, i32 6
  store i8 1, ptr %58, align 8, !tbaa !18
  %59 = getelementptr inbounds nuw %"class.net::PacingSender", ptr %18, i32 0, i32 5
  call void @llvm.memcpy.p0.p0.i64(ptr align 8 %15, ptr align 8 %59, i64 8, i1 false), !tbaa.struct !29
  call void @llvm.memcpy.p0.p0.i64(ptr align 8 %16, ptr align 8 %5, i64 8, i1 false), !tbaa.struct !29
  %60 = getelementptr inbounds nuw %"class.net::QuicTime", ptr %15, i32 0, i32 0
  %61 = load i64, ptr %60, align 8
  %62 = getelementptr inbounds nuw %"class.net::QuicTime", ptr %16, i32 0, i32 0
  %63 = load i64, ptr %62, align 8
  %64 = call { i64, i64 } @_ZN3netmiENS_8QuicTimeES0_(i64 %61, i64 %63)
  %65 = getelementptr inbounds nuw { i64, i64 }, ptr %4, i32 0, i32 0
  %66 = extractvalue { i64, i64 } %64, 0
  store i64 %66, ptr %65, align 8
  %67 = getelementptr inbounds nuw { i64, i64 }, ptr %4, i32 0, i32 1
  %68 = extractvalue { i64, i64 } %64, 1
  store i64 %68, ptr %67, align 8
  store i32 1, ptr %10, align 4
  br label %75

69:                                               ; preds = %42
  %70 = call { i64, i64 } @_ZN3net8QuicTime5Delta4ZeroEv()
  %71 = getelementptr inbounds nuw { i64, i64 }, ptr %4, i32 0, i32 0
  %72 = extractvalue { i64, i64 } %70, 0
  store i64 %72, ptr %71, align 8
  %73 = getelementptr inbounds nuw { i64, i64 }, ptr %4, i32 0, i32 1
  %74 = extractvalue { i64, i64 } %70, 1
  store i64 %74, ptr %73, align 8
  store i32 1, ptr %10, align 4
  br label %75

75:                                               ; preds = %69, %57, %41, %38
  call void @llvm.lifetime.end.p0(i64 16, ptr %8) #8
  %76 = load { i64, i64 }, ptr %4, align 8
  ret { i64, i64 } %76
}