; Function Attrs: mustprogress uwtable
define { i64, i64 } @_ZNK3net12PacingSender13TimeUntilSendENS_8QuicTimeEm(ptr noundef nonnull align 8 captures(none) dereferenceable(41) %0, i64 %1, i64 noundef %2) local_unnamed_addr #0 align 2 {
  %4 = load ptr, ptr %0, align 8, !tbaa !3
  %5 = load ptr, ptr %4, align 8, !tbaa !17
  %6 = getelementptr inbounds nuw i8, ptr %5, i64 64
  %7 = load ptr, ptr %6, align 8
  %8 = tail call { i64, i64 } %7(ptr noundef nonnull align 8 dereferenceable(8) %4, i64 %1, i64 noundef %2)
  %9 = extractvalue { i64, i64 } %8, 1
  %10 = getelementptr inbounds nuw i8, ptr %0, i64 16
  %11 = load i32, ptr %10, align 8, !tbaa !14
  %12 = icmp eq i32 %11, 0
  %13 = icmp ne i64 %2, 0
  %or.cond.not20 = and i1 %13, %12
  %14 = icmp eq i64 %9, 0
  %or.cond18 = select i1 %or.cond.not20, i1 %14, i1 false
  br i1 %or.cond18, label %15, label %22

15:                                               ; preds = %3
  %16 = getelementptr inbounds nuw i8, ptr %0, i64 32
  %.sroa.06.0.copyload = load i64, ptr %16, align 8, !tbaa !22
  %17 = add nsw i64 %1, 1000
  %18 = icmp slt i64 %17, %.sroa.06.0.copyload
  br i1 %18, label %19, label %22

19:                                               ; preds = %15
  %20 = getelementptr inbounds nuw i8, ptr %0, i64 40
  store i8 1, ptr %20, align 8, !tbaa !19
  %21 = sub nsw i64 %.sroa.06.0.copyload, %1
  %.fca.1.insert.i = insertvalue { i64, i64 } { i64 0, i64 poison }, i64 %21, 1
  br label %22

22:                                               ; preds = %15, %3, %19
  %.fca.1.insert.merged = phi { i64, i64 } [ %.fca.1.insert.i, %19 ], [ %8, %3 ], [ zeroinitializer, %15 ]
  ret { i64, i64 } %.fca.1.insert.merged
}